; Function Attrs: alwaysinline norecurse nounwind uwtable
define internal void @_ZN8LightGBM18MultiValBinWrapper9HistMergeILb0ELi0ELi0EEEvPSt6vectorIdNS_6Common18AlignmentAllocatorIdLm32EEEE.omp_outlined(ptr noalias noundef readonly captures(none) %0, ptr noalias readnone captures(none) %1, ptr noundef nonnull readonly align 4 captures(none) dereferenceable(4) %2, ptr noundef nonnull readonly align 4 captures(none) dereferenceable(4) %3, ptr noundef readonly captures(none) %4, ptr noundef nonnull readonly align 8 captures(none) dereferenceable(8) %5, ptr noundef nonnull readonly align 8 captures(none) dereferenceable(8) %6) #5 personality ptr @__gxx_personality_v0 {
  %8 = alloca i32, align 4
  %9 = alloca i32, align 4
  %10 = alloca i32, align 4
  %11 = alloca i32, align 4
  %12 = load i32, ptr %2, align 4, !tbaa !39
  %13 = add nsw i32 %12, -1
  %14 = icmp sgt i32 %12, 0
  br i1 %14, label %15, label %63

15:                                               ; preds = %7
  call void @llvm.lifetime.start.p0(i64 4, ptr nonnull %8) #6
  store i32 0, ptr %8, align 4, !tbaa !39
  call void @llvm.lifetime.start.p0(i64 4, ptr nonnull %9) #6
  store i32 %13, ptr %9, align 4, !tbaa !39
  call void @llvm.lifetime.start.p0(i64 4, ptr nonnull %10) #6
  store i32 1, ptr %10, align 4, !tbaa !39
  call void @llvm.lifetime.start.p0(i64 4, ptr nonnull %11) #6
  store i32 0, ptr %11, align 4, !tbaa !39
  %16 = load i32, ptr %0, align 4, !tbaa !39
  call void @__kmpc_for_static_init_4(ptr nonnull @1, i32 %16, i32 33, ptr nonnull %11, ptr nonnull %8, ptr nonnull %9, ptr nonnull %10, i32 1, i32 1)
  %.promoted = load i32, ptr %9, align 4, !tbaa !39
  %.promoted41 = load i32, ptr %8, align 4, !tbaa !39
  %17 = call i32 @llvm.smin.i32(i32 %.promoted, i32 %13)
  %.not42 = icmp sgt i32 %.promoted41, %17
  br i1 %.not42, label %62, label %.preheader.lr.ph

.preheader.lr.ph:                                 ; preds = %15
  %18 = load i32, ptr %3, align 4, !tbaa !39
  %19 = getelementptr inbounds nuw i8, ptr %4, i64 124
  %20 = load i32, ptr %19, align 4, !tbaa !39
  %21 = getelementptr inbounds nuw i8, ptr %4, i64 132
  %22 = load i32, ptr %21, align 4, !tbaa !59
  %23 = icmp sgt i32 %22, 1
  %24 = load i32, ptr %10, align 4, !tbaa !39
  br i1 %23, label %.preheader.lr.ph.split.us, label %.preheader

.preheader.lr.ph.split.us:                        ; preds = %.preheader.lr.ph
  %25 = getelementptr inbounds nuw i8, ptr %4, i64 128
  %26 = load i32, ptr %25, align 8, !tbaa !34
  %27 = sext i32 %26 to i64
  %factor.op.mul.us.us = shl nsw i64 %27, 1
  %28 = mul i32 %.promoted41, %18
  %29 = shl i32 %28, 1
  %30 = mul i32 %24, %18
  %31 = shl i32 %30, 1
  %32 = shl i32 %18, 1
  %wide.trip.count = zext nneg i32 %22 to i64
  br label %.preheader.us

.preheader.us:                                    ; preds = %.split.us.us, %.preheader.lr.ph.split.us
  %indvars.iv = phi i32 [ %indvars.iv.next, %.split.us.us ], [ %29, %.preheader.lr.ph.split.us ]
  %33 = phi i32 [ %56, %.split.us.us ], [ %17, %.preheader.lr.ph.split.us ]
  %34 = phi i32 [ %54, %.split.us.us ], [ %.promoted41, %.preheader.lr.ph.split.us ]
  %35 = load ptr, ptr %5, align 8
  %36 = load ptr, ptr %35, align 8, !tbaa !31
  br label %.lr.ph35.us.us

.lr.ph35.us.us:                                   ; preds = %._crit_edge36.us.us, %.preheader.us
  %indvars.iv51 = phi i32 [ %indvars.iv.next52, %._crit_edge36.us.us ], [ %indvars.iv, %.preheader.us ]
  %.02737.us.us = phi i32 [ %44, %._crit_edge36.us.us ], [ %34, %.preheader.us ]
  %37 = sext i32 %indvars.iv51 to i64
  %38 = mul nsw i32 %18, %.02737.us.us
  %39 = add nsw i32 %38, %18
  %.sroa.speculated.us.us = call i32 @llvm.smin.i32(i32 %20, i32 %39)
  %40 = icmp slt i32 %38, %.sroa.speculated.us.us
  %41 = load ptr, ptr %6, align 8
  br i1 %40, label %.lr.ph.us.us.us.preheader, label %._crit_edge36.us.us

.lr.ph.us.us.us.preheader:                        ; preds = %.lr.ph35.us.us
  %42 = shl nsw i32 %.sroa.speculated.us.us, 1
  %43 = sext i32 %42 to i64
  br label %.lr.ph.us.us.us

._crit_edge36.us.us:                              ; preds = %._crit_edge.us.us.us, %.lr.ph35.us.us
  %44 = add nsw i32 %.02737.us.us, 1
  %.not30.us.us.not = icmp slt i32 %.02737.us.us, %33
  %indvars.iv.next52 = add i32 %indvars.iv51, %32
  br i1 %.not30.us.us.not, label %.lr.ph35.us.us, label %.split.us.us

.lr.ph.us.us.us:                                  ; preds = %.lr.ph.us.us.us.preheader, %._crit_edge.us.us.us
  %indvars.iv56 = phi i64 [ 1, %.lr.ph.us.us.us.preheader ], [ %indvars.iv.next57, %._crit_edge.us.us.us ]
  %45 = add nsw i64 %indvars.iv56, -1
  %.reass.us.us.us = mul i64 %factor.op.mul.us.us, %45
  %46 = getelementptr inbounds nuw double, ptr %36, i64 %.reass.us.us.us
  br label %47

47:                                               ; preds = %47, %.lr.ph.us.us.us
  %indvars.iv53 = phi i64 [ %indvars.iv.next54, %47 ], [ %37, %.lr.ph.us.us.us ]
  %48 = getelementptr inbounds double, ptr %46, i64 %indvars.iv53
  %49 = load double, ptr %48, align 8, !tbaa !60
  %50 = getelementptr inbounds double, ptr %41, i64 %indvars.iv53
  %51 = load double, ptr %50, align 8, !tbaa !60
  %52 = fadd double %49, %51
  store double %52, ptr %50, align 8, !tbaa !60
  %indvars.iv.next54 = add nsw i64 %indvars.iv53, 1
  %53 = icmp slt i64 %indvars.iv.next54, %43
  br i1 %53, label %47, label %._crit_edge.us.us.us, !llvm.loop !62

._crit_edge.us.us.us:                             ; preds = %47
  %indvars.iv.next57 = add nuw nsw i64 %indvars.iv56, 1
  %exitcond.not = icmp eq i64 %indvars.iv.next57, %wide.trip.count
  br i1 %exitcond.not, label %._crit_edge36.us.us, label %.lr.ph.us.us.us, !llvm.loop !64

.split.us.us:                                     ; preds = %._crit_edge36.us.us
  %54 = add nsw i32 %24, %34
  %55 = add nsw i32 %24, %33
  %56 = call i32 @llvm.smin.i32(i32 %55, i32 %13)
  %.not.us = icmp sgt i32 %54, %56
  %indvars.iv.next = add i32 %indvars.iv, %31
  br i1 %.not.us, label %._crit_edge, label %.preheader.us

.preheader:                                       ; preds = %.preheader.lr.ph, %.preheader
  %57 = phi i32 [ %61, %.preheader ], [ %17, %.preheader.lr.ph ]
  %58 = phi i32 [ %59, %.preheader ], [ %.promoted41, %.preheader.lr.ph ]
  %59 = add nsw i32 %24, %58
  %60 = add nsw i32 %24, %57
  %61 = call i32 @llvm.smin.i32(i32 %60, i32 %13)
  %.not = icmp sgt i32 %59, %61
  br i1 %.not, label %._crit_edge, label %.preheader

._crit_edge:                                      ; preds = %.preheader, %.split.us.us
  %.us-phi = phi i32 [ %54, %.split.us.us ], [ %59, %.preheader ]
  %.us-phi44 = phi i32 [ %56, %.split.us.us ], [ %61, %.preheader ]
  store i32 %.us-phi, ptr %8, align 4, !tbaa !39
  br label %62

62:                                               ; preds = %._crit_edge, %15
  %.lcssa = phi i32 [ %.us-phi44, %._crit_edge ], [ %17, %15 ]
  store i32 %.lcssa, ptr %9, align 4, !tbaa !39
  call void @__kmpc_for_static_fini(ptr nonnull @1, i32 %16)
  call void @llvm.lifetime.end.p0(i64 4, ptr nonnull %11) #6
  call void @llvm.lifetime.end.p0(i64 4, ptr nonnull %10) #6
  call void @llvm.lifetime.end.p0(i64 4, ptr nonnull %9) #6
  call void @llvm.lifetime.end.p0(i64 4, ptr nonnull %8) #6
  br label %63

63:                                               ; preds = %62, %7
  ret void
}